target datalayout = "e-m:e-p270:32:32-p271:32:32-p272:64:64-i64:64-i128:128-f80:128-n8:16:32:64-S128"
target triple = "x86_64-pc-linux-gnu"

%struct.strbuf = type { i64, i64, ptr }
%struct.repository = type { ptr, ptr, ptr, ptr, ptr, %struct.strmap, %struct.strmap, %struct.repo_path_cache, ptr, ptr, ptr, ptr, %struct.repo_settings, ptr, ptr, ptr, ptr, ptr, ptr, i32, i32, i32, ptr, ptr, i32, i32, i8 }
%struct.strmap = type { %struct.hashmap, ptr, i8 }
%struct.hashmap = type { ptr, ptr, ptr, i32, i32, i32, i32, i8 }
%struct.repo_path_cache = type { ptr, ptr, ptr, ptr, ptr, ptr, ptr }
%struct.repo_settings = type { i32, i32, i32, i32, i32, i32, i32, i32, i32, i32, i32, i32, ptr, i32, i32, i32, i32, i32, i32, i32, i64, i64, i64 }

@__const.fsm_settings__get_incompatible_msg.msg = private unnamed_addr constant %struct.strbuf { i64 0, i64 0, ptr @strbuf_slopbuf }, align 8
@.str = private unnamed_addr constant [52 x i8] c"bare repository '%s' is incompatible with fsmonitor\00", align 1
@.str.1 = private unnamed_addr constant [61 x i8] c"repository '%s' is incompatible with fsmonitor due to errors\00", align 1
@.str.2 = private unnamed_addr constant [54 x i8] c"remote repository '%s' is incompatible with fsmonitor\00", align 1
@.str.3 = private unnamed_addr constant [55 x i8] c"virtual repository '%s' is incompatible with fsmonitor\00", align 1
@.str.4 = private unnamed_addr constant [89 x i8] c"socket directory '%s' is incompatible with fsmonitor due to lack of Unix sockets support\00", align 1
@.str.5 = private unnamed_addr constant [21 x i8] c"fsmonitor-settings.c\00", align 1
@.str.6 = private unnamed_addr constant [59 x i8] c"Unhandled case in fsm_settings__get_incompatible_msg: '%d'\00", align 1
@.str.9 = private unnamed_addr constant [1 x i8] zeroinitializer, align 1
@git_gettext_enabled = external global i32, align 4

; Function Attrs: inlinehint nounwind uwtable
define internal ptr @_(ptr noundef %0) #5 {
  %2 = alloca ptr, align 8
  %3 = alloca ptr, align 8
  store ptr %0, ptr %3, align 8, !tbaa !32
  %4 = load ptr, ptr %3, align 8, !tbaa !32
  %5 = load i8, ptr %4, align 1, !tbaa !34
  %6 = icmp ne i8 %5, 0
  br i1 %6, label %8, label %7

7:                                                ; preds = %1
  store ptr @.str.9, ptr %2, align 8
  br label %16

8:                                                ; preds = %1
  %9 = load i32, ptr @git_gettext_enabled, align 4, !tbaa !33
  %10 = icmp ne i32 %9, 0
  br i1 %10, label %13, label %11

11:                                               ; preds = %8
  %12 = load ptr, ptr %3, align 8, !tbaa !32
  store ptr %12, ptr %2, align 8
  br label %16

13:                                               ; preds = %8
  %14 = load ptr, ptr %3, align 8, !tbaa !32
  %15 = call ptr @dcgettext(ptr noundef null, ptr noundef %14, i32 noundef 5) #7
  store ptr %15, ptr %2, align 8
  br label %16

16:                                               ; preds = %13, %11, %7
  %17 = load ptr, ptr %2, align 8
  ret ptr %17
}

; Function Attrs: nounwind uwtable
define dso_local ptr @fsm_settings__get_incompatible_msg(ptr noundef %0, i32 noundef %1) #0 {
  %3 = alloca ptr, align 8
  %4 = alloca ptr, align 8
  %5 = alloca i32, align 4
  %6 = alloca %struct.strbuf, align 8
  %7 = alloca ptr, align 8
  %8 = alloca ptr, align 8
  %9 = alloca i32, align 4
  store ptr %0, ptr %4, align 8, !tbaa !4
  store i32 %1, ptr %5, align 4, !tbaa !33
  call void @llvm.lifetime.start.p0(i64 24, ptr %6) #7
  call void @llvm.memcpy.p0.p0.i64(ptr align 8 %6, ptr align 8 @__const.fsm_settings__get_incompatible_msg.msg, i64 24, i1 false)
  call void @llvm.lifetime.start.p0(i64 8, ptr %7) #7
  %10 = load i32, ptr %5, align 4, !tbaa !33
  switch i32 %10, label %39 [
    i32 0, label %11
    i32 1, label %11
    i32 2, label %12
    i32 3, label %18
    i32 4, label %23
    i32 5, label %28
    i32 6, label %33
  ]

11:                                               ; preds = %2, %2
  br label %41

12:                                               ; preds = %2
  call void @llvm.lifetime.start.p0(i64 8, ptr %8) #7
  %13 = call ptr @xgetcwd()
  store ptr %13, ptr %8, align 8, !tbaa !32
  %14 = call ptr @_(ptr noundef @.str)
  %15 = load ptr, ptr %8, align 8, !tbaa !32
  call void (ptr, ptr, ...) @strbuf_addf(ptr noundef %6, ptr noundef %14, ptr noundef %15)
  %16 = load ptr, ptr %8, align 8, !tbaa !32
  call void @free(ptr noundef %16) #7
  store i32 3, ptr %9, align 4
  call void @llvm.lifetime.end.p0(i64 8, ptr %8) #7
  %17 = load i32, ptr %9, align 4
  switch i32 %17, label %43 [
    i32 3, label %41
  ]

18:                                               ; preds = %2
  %19 = call ptr @_(ptr noundef @.str.1)
  %20 = load ptr, ptr %4, align 8, !tbaa !4
  %21 = getelementptr inbounds nuw %struct.repository, ptr %20, i32 0, i32 10
  %22 = load ptr, ptr %21, align 8, !tbaa !37
  call void (ptr, ptr, ...) @strbuf_addf(ptr noundef %6, ptr noundef %19, ptr noundef %22)
  br label %41

23:                                               ; preds = %2
  %24 = call ptr @_(ptr noundef @.str.2)
  %25 = load ptr, ptr %4, align 8, !tbaa !4
  %26 = getelementptr inbounds nuw %struct.repository, ptr %25, i32 0, i32 10
  %27 = load ptr, ptr %26, align 8, !tbaa !37
  call void (ptr, ptr, ...) @strbuf_addf(ptr noundef %6, ptr noundef %24, ptr noundef %27)
  br label %41

28:                                               ; preds = %2
  %29 = call ptr @_(ptr noundef @.str.3)
  %30 = load ptr, ptr %4, align 8, !tbaa !4
  %31 = getelementptr inbounds nuw %struct.repository, ptr %30, i32 0, i32 10
  %32 = load ptr, ptr %31, align 8, !tbaa !37
  call void (ptr, ptr, ...) @strbuf_addf(ptr noundef %6, ptr noundef %29, ptr noundef %32)
  br label %41

33:                                               ; preds = %2
  %34 = load ptr, ptr %4, align 8, !tbaa !4
  %35 = call ptr @fsmonitor_ipc__get_path(ptr noundef %34)
  %36 = call ptr @dirname(ptr noundef %35) #7
  store ptr %36, ptr %7, align 8, !tbaa !32
  %37 = call ptr @_(ptr noundef @.str.4)
  %38 = load ptr, ptr %7, align 8, !tbaa !32
  call void (ptr, ptr, ...) @strbuf_addf(ptr noundef %6, ptr noundef %37, ptr noundef %38)
  br label %41

39:                                               ; preds = %2
  %40 = load i32, ptr %5, align 4, !tbaa !33
  call void (ptr, i32, ptr, ...) @BUG_fl(ptr noundef @.str.5, i32 noundef 286, ptr noundef @.str.6, i32 noundef %40) #8
  unreachable

41:                                               ; preds = %12, %33, %28, %23, %18, %11
  %42 = call ptr @strbuf_detach(ptr noundef %6, ptr noundef null)
  store ptr %42, ptr %3, align 8
  store i32 1, ptr %9, align 4
  br label %43

43:                                               ; preds = %41, %12
  call void @llvm.lifetime.end.p0(i64 8, ptr %7) #7
  call void @llvm.lifetime.end.p0(i64 24, ptr %6) #7
  %44 = load ptr, ptr %3, align 8
  ret ptr %44
}