; Function Attrs: nounwind uwtable
define dso_local ptr @fsm_settings__get_incompatible_msg(ptr noundef %0, i32 noundef %1) local_unnamed_addr #0 {
  %3 = alloca %struct.strbuf, align 8
  call void @llvm.lifetime.start.p0(i64 24, ptr nonnull %3) #9
  call void @llvm.memcpy.p0.p0.i64(ptr noundef nonnull align 8 dereferenceable(24) %3, ptr noundef nonnull align 8 dereferenceable(24) @__const.fsm_settings__get_incompatible_msg.msg, i64 24, i1 false)
  switch i32 %1, label %33 [
    i32 0, label %34
    i32 1, label %34
    i32 2, label %4
    i32 3, label %9
    i32 4, label %15
    i32 5, label %21
    i32 6, label %27
  ]

4:                                                ; preds = %2
  %5 = tail call ptr @xgetcwd() #9
  %6 = load i32, ptr @git_gettext_enabled, align 4, !tbaa !31
  %.not4.i = icmp eq i32 %6, 0
  br i1 %.not4.i, label %_.exit, label %7

7:                                                ; preds = %4
  %8 = tail call ptr @dcgettext(ptr noundef null, ptr noundef nonnull @.str, i32 noundef 5) #9
  br label %_.exit

_.exit:                                           ; preds = %4, %7
  %.0.i = phi ptr [ %8, %7 ], [ @.str, %4 ]
  call void (ptr, ptr, ...) @strbuf_addf(ptr noundef nonnull %3, ptr noundef %.0.i, ptr noundef %5) #9
  call void @free(ptr noundef %5) #9
  br label %34

9:                                                ; preds = %2
  %10 = load i32, ptr @git_gettext_enabled, align 4, !tbaa !31
  %.not4.i10 = icmp eq i32 %10, 0
  br i1 %.not4.i10, label %_.exit12, label %11

11:                                               ; preds = %9
  %12 = tail call ptr @dcgettext(ptr noundef null, ptr noundef nonnull @.str.1, i32 noundef 5) #9
  br label %_.exit12

_.exit12:                                         ; preds = %9, %11
  %.0.i11 = phi ptr [ %12, %11 ], [ @.str.1, %9 ]
  %13 = getelementptr inbounds nuw i8, ptr %0, i64 240
  %14 = load ptr, ptr %13, align 8, !tbaa !32
  call void (ptr, ptr, ...) @strbuf_addf(ptr noundef nonnull %3, ptr noundef %.0.i11, ptr noundef %14) #9
  br label %34

15:                                               ; preds = %2
  %16 = load i32, ptr @git_gettext_enabled, align 4, !tbaa !31
  %.not4.i13 = icmp eq i32 %16, 0
  br i1 %.not4.i13, label %_.exit15, label %17

17:                                               ; preds = %15
  %18 = tail call ptr @dcgettext(ptr noundef null, ptr noundef nonnull @.str.2, i32 noundef 5) #9
  br label %_.exit15

_.exit15:                                         ; preds = %15, %17
  %.0.i14 = phi ptr [ %18, %17 ], [ @.str.2, %15 ]
  %19 = getelementptr inbounds nuw i8, ptr %0, i64 240
  %20 = load ptr, ptr %19, align 8, !tbaa !32
  call void (ptr, ptr, ...) @strbuf_addf(ptr noundef nonnull %3, ptr noundef %.0.i14, ptr noundef %20) #9
  br label %34

21:                                               ; preds = %2
  %22 = load i32, ptr @git_gettext_enabled, align 4, !tbaa !31
  %.not4.i16 = icmp eq i32 %22, 0
  br i1 %.not4.i16, label %_.exit18, label %23

23:                                               ; preds = %21
  %24 = tail call ptr @dcgettext(ptr noundef null, ptr noundef nonnull @.str.3, i32 noundef 5) #9
  br label %_.exit18

_.exit18:                                         ; preds = %21, %23
  %.0.i17 = phi ptr [ %24, %23 ], [ @.str.3, %21 ]
  %25 = getelementptr inbounds nuw i8, ptr %0, i64 240
  %26 = load ptr, ptr %25, align 8, !tbaa !32
  call void (ptr, ptr, ...) @strbuf_addf(ptr noundef nonnull %3, ptr noundef %.0.i17, ptr noundef %26) #9
  br label %34

27:                                               ; preds = %2
  %28 = tail call ptr @fsmonitor_ipc__get_path(ptr noundef %0) #9
  %29 = tail call ptr @dirname(ptr noundef %28) #9
  %30 = load i32, ptr @git_gettext_enabled, align 4, !tbaa !31
  %.not4.i19 = icmp eq i32 %30, 0
  br i1 %.not4.i19, label %_.exit21, label %31

31:                                               ; preds = %27
  %32 = tail call ptr @dcgettext(ptr noundef null, ptr noundef nonnull @.str.4, i32 noundef 5) #9
  br label %_.exit21

_.exit21:                                         ; preds = %27, %31
  %.0.i20 = phi ptr [ %32, %31 ], [ @.str.4, %27 ]
  call void (ptr, ptr, ...) @strbuf_addf(ptr noundef nonnull %3, ptr noundef %.0.i20, ptr noundef %29) #9
  br label %34

33:                                               ; preds = %2
  tail call void (ptr, i32, ptr, ...) @BUG_fl(ptr noundef nonnull @.str.5, i32 noundef 286, ptr noundef nonnull @.str.6, i32 noundef %1) #10
  unreachable

34:                                               ; preds = %_.exit, %2, %2, %_.exit21, %_.exit18, %_.exit15, %_.exit12
  %35 = call ptr @strbuf_detach(ptr noundef nonnull %3, ptr noundef null) #9
  call void @llvm.lifetime.end.p0(i64 24, ptr nonnull %3) #9
  ret ptr %35
}